; Function Attrs: nounwind uwtable
define dso_local void @lua_xmove(ptr noundef captures(address) %0, ptr noundef %1, i32 noundef %2) local_unnamed_addr #1 {
  %4 = icmp eq ptr %0, %1
  br i1 %4, label %26, label %5

5:                                                ; preds = %3
  %6 = getelementptr inbounds nuw i8, ptr %1, i64 48
  %7 = load i64, ptr %6, align 8, !tbaa !16
  %8 = getelementptr inbounds nuw i8, ptr %1, i64 40
  %9 = load ptr, ptr %8, align 8, !tbaa !14
  %10 = ptrtoint ptr %9 to i64
  %11 = sub i64 %7, %10
  %12 = zext i32 %2 to i64
  %13 = shl nuw nsw i64 %12, 3
  %.not.i = icmp sgt i64 %11, %13
  br i1 %.not.i, label %lj_state_checkstack.exit, label %14

14:                                               ; preds = %5
  tail call void @lj_state_growstack(ptr noundef nonnull %1, i32 noundef %2) #13
  %.pre = load ptr, ptr %8, align 8, !tbaa !14
  br label %lj_state_checkstack.exit

lj_state_checkstack.exit:                         ; preds = %5, %14
  %15 = phi ptr [ %9, %5 ], [ %.pre, %14 ]
  %16 = getelementptr inbounds nuw i8, ptr %0, i64 40
  %17 = load ptr, ptr %16, align 8, !tbaa !14
  %18 = sext i32 %2 to i64
  %19 = getelementptr inbounds %union.TValue, ptr %15, i64 %18
  store ptr %19, ptr %8, align 8, !tbaa !14
  %20 = icmp sgt i32 %2, 0
  br i1 %20, label %.lr.ph, label %._crit_edge

.lr.ph:                                           ; preds = %lj_state_checkstack.exit, %.lr.ph
  %.020 = phi ptr [ %22, %.lr.ph ], [ %19, %lj_state_checkstack.exit ]
  %.01319 = phi ptr [ %23, %.lr.ph ], [ %17, %lj_state_checkstack.exit ]
  %.01418 = phi i32 [ %21, %.lr.ph ], [ %2, %lj_state_checkstack.exit ]
  %21 = add nsw i32 %.01418, -1
  %22 = getelementptr inbounds i8, ptr %.020, i64 -8
  %23 = getelementptr inbounds i8, ptr %.01319, i64 -8
  %24 = load i64, ptr %23, align 8, !tbaa !17
  store i64 %24, ptr %22, align 8, !tbaa !17
  %25 = icmp samesign ugt i32 %.01418, 1
  br i1 %25, label %.lr.ph, label %._crit_edge, !llvm.loop !18

._crit_edge:                                      ; preds = %.lr.ph, %lj_state_checkstack.exit
  %.013.lcssa = phi ptr [ %17, %lj_state_checkstack.exit ], [ %23, %.lr.ph ]
  store ptr %.013.lcssa, ptr %16, align 8, !tbaa !14
  br label %26

26:                                               ; preds = %3, %._crit_edge
  ret void
}